target datalayout = "e-m:e-p270:32:32-p271:32:32-p272:64:64-i64:64-i128:128-f80:128-n8:16:32:64-S128"
target triple = "x86_64-pc-linux-gnu"

%"class.gmx::ArrayRef" = type { %"struct.gmx::ArrayRefIter", %"struct.gmx::ArrayRefIter" }
%"struct.gmx::ArrayRefIter" = type { ptr }
%"class.gmx::GpuTaskAssignments" = type { ptr, %"class.std::vector", i64, i64, i64, %"class.std::vector.0" }
%"class.std::vector" = type { %"struct.std::_Vector_base" }
%"struct.std::_Vector_base" = type { %"struct.std::_Vector_base<std::vector<gmx::GpuTaskMapping>, std::allocator<std::vector<gmx::GpuTaskMapping>>>::_Vector_impl" }
%"struct.std::_Vector_base<std::vector<gmx::GpuTaskMapping>, std::allocator<std::vector<gmx::GpuTaskMapping>>>::_Vector_impl" = type { %"struct.std::_Vector_base<std::vector<gmx::GpuTaskMapping>, std::allocator<std::vector<gmx::GpuTaskMapping>>>::_Vector_impl_data" }
%"struct.std::_Vector_base<std::vector<gmx::GpuTaskMapping>, std::allocator<std::vector<gmx::GpuTaskMapping>>>::_Vector_impl_data" = type { ptr, ptr, ptr }
%"class.std::vector.0" = type { %"struct.std::_Vector_base.1" }
%"struct.std::_Vector_base.1" = type { %"struct.std::_Vector_base<int, std::allocator<int>>::_Vector_impl" }
%"struct.std::_Vector_base<int, std::allocator<int>>::_Vector_impl" = type { %"struct.std::_Vector_base<int, std::allocator<int>>::_Vector_impl_data" }
%"struct.std::_Vector_base<int, std::allocator<int>>::_Vector_impl_data" = type { ptr, ptr, ptr }
%"class.std::vector.69" = type { %"struct.std::_Vector_base.70" }
%"struct.std::_Vector_base.70" = type { %"struct.std::_Vector_base<gmx::GpuTaskMapping, std::allocator<gmx::GpuTaskMapping>>::_Vector_impl" }
%"struct.std::_Vector_base<gmx::GpuTaskMapping, std::allocator<gmx::GpuTaskMapping>>::_Vector_impl" = type { %"struct.std::_Vector_base<gmx::GpuTaskMapping, std::allocator<gmx::GpuTaskMapping>>::_Vector_impl_data" }
%"struct.std::_Vector_base<gmx::GpuTaskMapping, std::allocator<gmx::GpuTaskMapping>>::_Vector_impl_data" = type { ptr, ptr, ptr }

; Function Attrs: mustprogress nounwind uwtable
define linkonce_odr noundef ptr @_ZNKSt6vectorIS_IN3gmx14GpuTaskMappingESaIS1_EESaIS3_EE11_M_data_ptrIS3_EEPT_S8_(ptr noundef nonnull align 8 dereferenceable(24) %0, ptr noundef %1) #2 comdat align 2 {
  %3 = alloca ptr, align 8
  %4 = alloca ptr, align 8
  store ptr %0, ptr %3, align 8, !tbaa !58
  store ptr %1, ptr %4, align 8, !tbaa !46
  %5 = load ptr, ptr %4, align 8, !tbaa !46
  ret ptr %5
}

; Function Attrs: mustprogress nounwind uwtable
define linkonce_odr noundef i64 @_ZNKSt6vectorIS_IN3gmx14GpuTaskMappingESaIS1_EESaIS3_EE4sizeEv(ptr noundef nonnull align 8 dereferenceable(24) %0) #2 comdat align 2 {
  %2 = alloca ptr, align 8
  store ptr %0, ptr %2, align 8, !tbaa !58
  %3 = load ptr, ptr %2, align 8
  %4 = getelementptr inbounds nuw %"struct.std::_Vector_base", ptr %3, i32 0, i32 0
  %5 = getelementptr inbounds nuw %"struct.std::_Vector_base<std::vector<gmx::GpuTaskMapping>, std::allocator<std::vector<gmx::GpuTaskMapping>>>::_Vector_impl_data", ptr %4, i32 0, i32 1
  %6 = load ptr, ptr %5, align 8, !tbaa !129
  %7 = getelementptr inbounds nuw %"struct.std::_Vector_base", ptr %3, i32 0, i32 0
  %8 = getelementptr inbounds nuw %"struct.std::_Vector_base<std::vector<gmx::GpuTaskMapping>, std::allocator<std::vector<gmx::GpuTaskMapping>>>::_Vector_impl_data", ptr %7, i32 0, i32 0
  %9 = load ptr, ptr %8, align 8, !tbaa !128
  %10 = ptrtoint ptr %6 to i64
  %11 = ptrtoint ptr %9 to i64
  %12 = sub i64 %10, %11
  %13 = sdiv exact i64 %12, 24
  ret i64 %13
}

; Function Attrs: mustprogress nounwind uwtable
define linkonce_odr void @_ZN3gmx12ArrayRefIterIKSt6vectorINS_14GpuTaskMappingESaIS2_EEEC2EPS5_(ptr noundef nonnull align 8 dereferenceable(8) %0, ptr noundef %1) unnamed_addr #2 comdat align 2 {
  %3 = alloca ptr, align 8
  %4 = alloca ptr, align 8
  store ptr %0, ptr %3, align 8, !tbaa !178
  store ptr %1, ptr %4, align 8, !tbaa !46
  %5 = load ptr, ptr %3, align 8
  %6 = getelementptr inbounds nuw %"struct.gmx::ArrayRefIter", ptr %5, i32 0, i32 0
  %7 = load ptr, ptr %4, align 8, !tbaa !46
  store ptr %7, ptr %6, align 8, !tbaa !180
  ret void
}

; Function Attrs: mustprogress nounwind uwtable
define linkonce_odr noundef ptr @_ZNSt6vectorIS_IN3gmx14GpuTaskMappingESaIS1_EESaIS3_EE4dataEv(ptr noundef nonnull align 8 dereferenceable(24) %0) #2 comdat align 2 {
  %2 = alloca ptr, align 8
  store ptr %0, ptr %2, align 8, !tbaa !58
  %3 = load ptr, ptr %2, align 8
  %4 = getelementptr inbounds nuw %"struct.std::_Vector_base", ptr %3, i32 0, i32 0
  %5 = getelementptr inbounds nuw %"struct.std::_Vector_base<std::vector<gmx::GpuTaskMapping>, std::allocator<std::vector<gmx::GpuTaskMapping>>>::_Vector_impl_data", ptr %4, i32 0, i32 0
  %6 = load ptr, ptr %5, align 8, !tbaa !128
  %7 = call noundef ptr @_ZNKSt6vectorIS_IN3gmx14GpuTaskMappingESaIS1_EESaIS3_EE11_M_data_ptrIS3_EEPT_S8_(ptr noundef nonnull align 8 dereferenceable(24) %3, ptr noundef %6) #20
  ret ptr %7
}

; Function Attrs: mustprogress nounwind uwtable
define linkonce_odr void @_ZN3gmx8ArrayRefIKSt6vectorINS_14GpuTaskMappingESaIS2_EEEC2IRS1_IS4_SaIS4_EEvEEOT_(ptr noundef nonnull align 8 dereferenceable(16) %0, ptr noundef nonnull align 8 dereferenceable(24) %1) unnamed_addr #2 comdat align 2 {
  %3 = alloca ptr, align 8
  %4 = alloca ptr, align 8
  store ptr %0, ptr %3, align 8, !tbaa !56
  store ptr %1, ptr %4, align 8, !tbaa !58
  %5 = load ptr, ptr %3, align 8
  %6 = getelementptr inbounds nuw %"class.gmx::ArrayRef", ptr %5, i32 0, i32 0
  %7 = load ptr, ptr %4, align 8, !tbaa !58
  %8 = call noundef ptr @_ZNSt6vectorIS_IN3gmx14GpuTaskMappingESaIS1_EESaIS3_EE4dataEv(ptr noundef nonnull align 8 dereferenceable(24) %7) #20
  call void @_ZN3gmx12ArrayRefIterIKSt6vectorINS_14GpuTaskMappingESaIS2_EEEC2EPS5_(ptr noundef nonnull align 8 dereferenceable(8) %6, ptr noundef %8) #20
  %9 = getelementptr inbounds nuw %"class.gmx::ArrayRef", ptr %5, i32 0, i32 1
  %10 = load ptr, ptr %4, align 8, !tbaa !58
  %11 = call noundef ptr @_ZNSt6vectorIS_IN3gmx14GpuTaskMappingESaIS1_EESaIS3_EE4dataEv(ptr noundef nonnull align 8 dereferenceable(24) %10) #20
  %12 = load ptr, ptr %4, align 8, !tbaa !58
  %13 = call noundef i64 @_ZNKSt6vectorIS_IN3gmx14GpuTaskMappingESaIS1_EESaIS3_EE4sizeEv(ptr noundef nonnull align 8 dereferenceable(24) %12) #20
  %14 = getelementptr inbounds nuw %"class.std::vector.69", ptr %11, i64 %13
  call void @_ZN3gmx12ArrayRefIterIKSt6vectorINS_14GpuTaskMappingESaIS2_EEEC2EPS5_(ptr noundef nonnull align 8 dereferenceable(8) %9, ptr noundef %14) #20
  ret void
}

; Function Attrs: mustprogress uwtable
define void @_ZN3gmx18GpuTaskAssignments14reportGpuUsageERKNS_8MDLoggerEb10PmeRunModeRKNS_18SimulationWorkloadE(ptr noundef nonnull align 8 dereferenceable(80) %0, ptr noundef nonnull align 8 dereferenceable(40) %1, i1 noundef zeroext %2, i32 noundef %3, ptr noundef nonnull align 1 dereferenceable(25) %4) #0 align 2 {
  %6 = alloca ptr, align 8
  %7 = alloca ptr, align 8
  %8 = alloca i8, align 1
  %9 = alloca i32, align 4
  %10 = alloca ptr, align 8
  %11 = alloca %"class.gmx::ArrayRef", align 8
  store ptr %0, ptr %6, align 8, !tbaa !3
  store ptr %1, ptr %7, align 8, !tbaa !8
  %12 = zext i1 %2 to i8
  store i8 %12, ptr %8, align 1, !tbaa !69
  store i32 %3, ptr %9, align 4, !tbaa !150
  store ptr %4, ptr %10, align 8, !tbaa !152
  %13 = load ptr, ptr %6, align 8
  %14 = load ptr, ptr %7, align 8, !tbaa !8
  %15 = getelementptr inbounds nuw %"class.gmx::GpuTaskAssignments", ptr %13, i32 0, i32 1
  call void @_ZN3gmx8ArrayRefIKSt6vectorINS_14GpuTaskMappingESaIS2_EEEC2IRS1_IS4_SaIS4_EEvEEOT_(ptr noundef nonnull align 8 dereferenceable(16) %11, ptr noundef nonnull align 8 dereferenceable(24) %15)
  %16 = getelementptr inbounds nuw %"class.gmx::GpuTaskAssignments", ptr %13, i32 0, i32 3
  %17 = load i64, ptr %16, align 8, !tbaa !12
  %18 = getelementptr inbounds nuw %"class.gmx::GpuTaskAssignments", ptr %13, i32 0, i32 4
  %19 = load i64, ptr %18, align 8, !tbaa !87
  %20 = load i8, ptr %8, align 1, !tbaa !69, !range !80, !noundef !81
  %21 = trunc i8 %20 to i1
  %22 = load i32, ptr %9, align 4, !tbaa !150
  %23 = load ptr, ptr %10, align 8, !tbaa !152
  %24 = getelementptr inbounds nuw { ptr, ptr }, ptr %11, i32 0, i32 0
  %25 = load ptr, ptr %24, align 8
  %26 = getelementptr inbounds nuw { ptr, ptr }, ptr %11, i32 0, i32 1
  %27 = load ptr, ptr %26, align 8
  call void @_ZN3gmx14reportGpuUsageERKNS_8MDLoggerENS_8ArrayRefIKSt6vectorINS_14GpuTaskMappingESaIS5_EEEEmmb10PmeRunModeRKNS_18SimulationWorkloadE(ptr noundef nonnull align 8 dereferenceable(40) %14, ptr %25, ptr %27, i64 noundef %17, i64 noundef %19, i1 noundef zeroext %21, i32 noundef %22, ptr noundef nonnull align 1 dereferenceable(25) %23)
  ret void
}