; Function Attrs: mustprogress uwtable
define void @_ZN3gmx18GpuTaskAssignments14reportGpuUsageERKNS_8MDLoggerEb10PmeRunModeRKNS_18SimulationWorkloadE(ptr noundef nonnull readonly align 8 captures(none) dereferenceable(80) %0, ptr noundef nonnull align 8 dereferenceable(40) %1, i1 noundef zeroext %2, i32 noundef %3, ptr noundef nonnull align 1 dereferenceable(25) %4) local_unnamed_addr #0 align 2 {
  %6 = getelementptr inbounds nuw i8, ptr %0, i64 8
  %7 = load ptr, ptr %6, align 8, !tbaa !36
  %8 = getelementptr inbounds nuw i8, ptr %0, i64 16
  %9 = load ptr, ptr %8, align 8, !tbaa !37
  %10 = ptrtoint ptr %9 to i64
  %11 = ptrtoint ptr %7 to i64
  %12 = sub i64 %10, %11
  %13 = getelementptr inbounds nuw i8, ptr %7, i64 %12
  %14 = getelementptr inbounds nuw i8, ptr %0, i64 40
  %15 = load i64, ptr %14, align 8, !tbaa !3
  %16 = getelementptr inbounds nuw i8, ptr %0, i64 48
  %17 = load i64, ptr %16, align 8, !tbaa !95
  tail call void @_ZN3gmx14reportGpuUsageERKNS_8MDLoggerENS_8ArrayRefIKSt6vectorINS_14GpuTaskMappingESaIS5_EEEEmmb10PmeRunModeRKNS_18SimulationWorkloadE(ptr noundef nonnull align 8 dereferenceable(40) %1, ptr %7, ptr %13, i64 noundef %15, i64 noundef %17, i1 noundef zeroext %2, i32 noundef %3, ptr noundef nonnull align 1 dereferenceable(25) %4)
  ret void
}